target datalayout = "e-m:e-p270:32:32-p271:32:32-p272:64:64-i64:64-i128:128-f80:128-n8:16:32:64-S128"
target triple = "x86_64-pc-linux-gnu"

%struct.IDAMemRec = type { double, ptr, ptr, i32, double, double, ptr, i32, ptr, ptr, i32, ptr, ptr, i32, i32, double, double, ptr, i32, i32, i32, ptr, ptr, i32, ptr, ptr, ptr, i32, double, i32, i32, double, ptr, ptr, i32, ptr, ptr, i32, i32, i32, double, ptr, ptr, [6 x ptr], [6 x double], [6 x double], [6 x double], [6 x double], [6 x double], ptr, ptr, ptr, ptr, ptr, ptr, ptr, ptr, ptr, ptr, ptr, ptr, ptr, ptr, ptr, [6 x ptr], ptr, ptr, ptr, ptr, [6 x ptr], ptr, ptr, ptr, ptr, ptr, ptr, ptr, ptr, ptr, ptr, ptr, ptr, ptr, ptr, [6 x ptr], ptr, ptr, ptr, ptr, ptr, double, ptr, ptr, i32, i32, i32, i32, i32, i32, i32, double, double, double, i32, double, i32, i32, i32, i32, double, double, double, double, double, double, double, double, double, double, double, double, double, double, i32, i32, i32, i32, i32, i64, double, i32, i64, i64, i64, i64, i64, i64, i64, i64, i64, i64, i64, i64, i64, i64, i64, i64, i64, i64, i64, i64, i64, i64, i64, i64, ptr, ptr, ptr, i32, i32, i32, i32, i32, i32, i32, i32, i32, i32, i32, i32, i32, ptr, ptr, ptr, ptr, ptr, ptr, i32, i32, i32, i32, i32, i32, double, double, double, ptr, i32, ptr, ptr, double, double, double, ptr, ptr, ptr, double, double, i32, i32, i64, ptr, i32, i32, ptr, i32 }
%struct.IDASpilsMemRec = type { i32, i32, double, i32, i32, double, double, double, i64, i64, i64, i64, i64, i64, i64, i64, i64, i64, i64, i64, ptr, ptr, ptr, ptr, ptr, ptr, ptr, i64, ptr, ptr, ptr, ptr, i32, ptr, ptr }

; Function Attrs: nounwind uwtable
define i32 @IDASpilsAtimes(ptr noundef %0, ptr noundef %1, ptr noundef %2) #0 {
  %4 = alloca ptr, align 8
  %5 = alloca ptr, align 8
  %6 = alloca ptr, align 8
  %7 = alloca ptr, align 8
  %8 = alloca ptr, align 8
  %9 = alloca i32, align 4
  store ptr %0, ptr %4, align 8, !tbaa !3
  store ptr %1, ptr %5, align 8, !tbaa !49
  store ptr %2, ptr %6, align 8, !tbaa !49
  call void @llvm.lifetime.start.p0(i64 8, ptr %7) #5
  call void @llvm.lifetime.start.p0(i64 8, ptr %8) #5
  call void @llvm.lifetime.start.p0(i64 4, ptr %9) #5
  %10 = load ptr, ptr %4, align 8, !tbaa !3
  store ptr %10, ptr %7, align 8, !tbaa !9
  %11 = load ptr, ptr %7, align 8, !tbaa !9
  %12 = getelementptr inbounds nuw %struct.IDAMemRec, ptr %11, i32 0, i32 176
  %13 = load ptr, ptr %12, align 8, !tbaa !11
  store ptr %13, ptr %8, align 8, !tbaa !21
  %14 = load ptr, ptr %8, align 8, !tbaa !21
  %15 = getelementptr inbounds nuw %struct.IDASpilsMemRec, ptr %14, i32 0, i32 33
  %16 = load ptr, ptr %15, align 8, !tbaa !34
  %17 = load ptr, ptr %7, align 8, !tbaa !9
  %18 = getelementptr inbounds nuw %struct.IDAMemRec, ptr %17, i32 0, i32 112
  %19 = load double, ptr %18, align 8, !tbaa !50
  %20 = load ptr, ptr %8, align 8, !tbaa !21
  %21 = getelementptr inbounds nuw %struct.IDASpilsMemRec, ptr %20, i32 0, i32 23
  %22 = load ptr, ptr %21, align 8, !tbaa !51
  %23 = load ptr, ptr %8, align 8, !tbaa !21
  %24 = getelementptr inbounds nuw %struct.IDASpilsMemRec, ptr %23, i32 0, i32 24
  %25 = load ptr, ptr %24, align 8, !tbaa !52
  %26 = load ptr, ptr %8, align 8, !tbaa !21
  %27 = getelementptr inbounds nuw %struct.IDASpilsMemRec, ptr %26, i32 0, i32 25
  %28 = load ptr, ptr %27, align 8, !tbaa !53
  %29 = load ptr, ptr %5, align 8, !tbaa !49
  %30 = load ptr, ptr %6, align 8, !tbaa !49
  %31 = load ptr, ptr %7, align 8, !tbaa !9
  %32 = getelementptr inbounds nuw %struct.IDAMemRec, ptr %31, i32 0, i32 114
  %33 = load double, ptr %32, align 8, !tbaa !54
  %34 = load ptr, ptr %8, align 8, !tbaa !21
  %35 = getelementptr inbounds nuw %struct.IDASpilsMemRec, ptr %34, i32 0, i32 34
  %36 = load ptr, ptr %35, align 8, !tbaa !55
  %37 = load ptr, ptr %8, align 8, !tbaa !21
  %38 = getelementptr inbounds nuw %struct.IDASpilsMemRec, ptr %37, i32 0, i32 20
  %39 = load ptr, ptr %38, align 8, !tbaa !56
  %40 = load ptr, ptr %8, align 8, !tbaa !21
  %41 = getelementptr inbounds nuw %struct.IDASpilsMemRec, ptr %40, i32 0, i32 21
  %42 = load ptr, ptr %41, align 8, !tbaa !57
  %43 = call i32 %16(double noundef %19, ptr noundef %22, ptr noundef %25, ptr noundef %28, ptr noundef %29, ptr noundef %30, double noundef %33, ptr noundef %36, ptr noundef %39, ptr noundef %42)
  store i32 %43, ptr %9, align 4, !tbaa !7
  %44 = load ptr, ptr %8, align 8, !tbaa !21
  %45 = getelementptr inbounds nuw %struct.IDASpilsMemRec, ptr %44, i32 0, i32 13
  %46 = load i64, ptr %45, align 8, !tbaa !44
  %47 = add nsw i64 %46, 1
  store i64 %47, ptr %45, align 8, !tbaa !44
  %48 = load i32, ptr %9, align 4, !tbaa !7
  call void @llvm.lifetime.end.p0(i64 4, ptr %9) #5
  call void @llvm.lifetime.end.p0(i64 8, ptr %8) #5
  call void @llvm.lifetime.end.p0(i64 8, ptr %7) #5
  ret i32 %48
}