; Function Attrs: nounwind uwtable
define i32 @IDASpilsAtimes(ptr noundef readonly captures(none) %0, ptr noundef %1, ptr noundef %2) local_unnamed_addr #0 {
  %4 = getelementptr inbounds nuw i8, ptr %0, i64 1632
  %5 = load ptr, ptr %4, align 8, !tbaa !3
  %6 = getelementptr inbounds nuw i8, ptr %5, i64 248
  %7 = load ptr, ptr %6, align 8, !tbaa !27
  %8 = getelementptr inbounds nuw i8, ptr %0, i64 1184
  %9 = load double, ptr %8, align 8, !tbaa !38
  %10 = getelementptr inbounds nuw i8, ptr %5, i64 168
  %11 = load ptr, ptr %10, align 8, !tbaa !39
  %12 = getelementptr inbounds nuw i8, ptr %5, i64 176
  %13 = load ptr, ptr %12, align 8, !tbaa !40
  %14 = getelementptr inbounds nuw i8, ptr %5, i64 184
  %15 = load ptr, ptr %14, align 8, !tbaa !41
  %16 = getelementptr inbounds nuw i8, ptr %0, i64 1200
  %17 = load double, ptr %16, align 8, !tbaa !42
  %18 = getelementptr inbounds nuw i8, ptr %5, i64 256
  %19 = load ptr, ptr %18, align 8, !tbaa !43
  %20 = getelementptr inbounds nuw i8, ptr %5, i64 144
  %21 = load ptr, ptr %20, align 8, !tbaa !44
  %22 = getelementptr inbounds nuw i8, ptr %5, i64 152
  %23 = load ptr, ptr %22, align 8, !tbaa !45
  %24 = tail call i32 %7(double noundef %9, ptr noundef %11, ptr noundef %13, ptr noundef %15, ptr noundef %1, ptr noundef %2, double noundef %17, ptr noundef %19, ptr noundef %21, ptr noundef %23) #5
  %25 = getelementptr inbounds nuw i8, ptr %5, i64 88
  %26 = load i64, ptr %25, align 8, !tbaa !35
  %27 = add nsw i64 %26, 1
  store i64 %27, ptr %25, align 8, !tbaa !35
  ret i32 %24
}